target datalayout = "e-m:e-p270:32:32-p271:32:32-p272:64:64-i64:64-i128:128-f80:128-n8:16:32:64-S128"
target triple = "x86_64-pc-linux-gnu"

@.str.26 = private unnamed_addr constant [18 x i8] c"cannot be negated\00", align 1
@.str.27 = private unnamed_addr constant [16 x i8] c"cannot be added\00", align 1
@.str.28 = private unnamed_addr constant [21 x i8] c"cannot be subtracted\00", align 1
@.str.29 = private unnamed_addr constant [21 x i8] c"cannot be multiplied\00", align 1
@.str.30 = private unnamed_addr constant [18 x i8] c"cannot be divided\00", align 1
@.str.31 = private unnamed_addr constant [34 x i8] c"does not support modulo operation\00", align 1
@.str.32 = private unnamed_addr constant [29 x i8] c"does not support bitwise AND\00", align 1
@.str.33 = private unnamed_addr constant [13 x i8] c"cannot FIXME\00", align 1

; Function Attrs: nounwind null_pointer_is_valid sspstrong uwtable
define internal ptr @op_to_error_msg(i32 noundef %0) #5 {
  %2 = alloca ptr, align 8
  %3 = alloca i32, align 4
  store i32 %0, ptr %3, align 4
  %4 = load i32, ptr %3, align 4
  switch i32 %4, label %12 [
    i32 17, label %5
    i32 18, label %6
    i32 19, label %7
    i32 20, label %8
    i32 21, label %9
    i32 22, label %10
    i32 16, label %11
  ]

5:                                                ; preds = %1
  store ptr @.str.26, ptr %2, align 8
  br label %13

6:                                                ; preds = %1
  store ptr @.str.27, ptr %2, align 8
  br label %13

7:                                                ; preds = %1
  store ptr @.str.28, ptr %2, align 8
  br label %13

8:                                                ; preds = %1
  store ptr @.str.29, ptr %2, align 8
  br label %13

9:                                                ; preds = %1
  store ptr @.str.30, ptr %2, align 8
  br label %13

10:                                               ; preds = %1
  store ptr @.str.31, ptr %2, align 8
  br label %13

11:                                               ; preds = %1
  store ptr @.str.32, ptr %2, align 8
  br label %13

12:                                               ; preds = %1
  store ptr @.str.33, ptr %2, align 8
  br label %13

13:                                               ; preds = %12, %11, %10, %9, %8, %7, %6, %5
  %14 = load ptr, ptr %2, align 8
  ret ptr %14
}